; Function Attrs: mustprogress uwtable
define internal noundef signext i8 @_ZL13csdet_cleanupv() #0 {
entry:
  %0 = load ptr, ptr @_ZL14fCSRecognizers, align 8
  %cmp.not = icmp eq ptr %0, null
  br i1 %cmp.not, label %if.end, label %for.cond.preheader

for.cond.preheader:                               ; preds = %entry
  %.b5 = load i1, ptr @_ZL19fCSRecognizers_size, align 4
  br i1 %.b5, label %for.body, label %for.end

for.body:                                         ; preds = %for.cond.preheader, %delete.end
  %1 = phi ptr [ %5, %delete.end ], [ %0, %for.cond.preheader ]
  %indvars.iv = phi i64 [ %indvars.iv.next, %delete.end ], [ 0, %for.cond.preheader ]
  %arrayidx = getelementptr inbounds ptr, ptr %1, i64 %indvars.iv
  %2 = load ptr, ptr %arrayidx, align 8
  %isnull = icmp eq ptr %2, null
  br i1 %isnull, label %delete.end, label %delete.notnull

delete.notnull:                                   ; preds = %for.body
  %3 = load ptr, ptr %2, align 8
  %isnull.i = icmp eq ptr %3, null
  br i1 %isnull.i, label %_ZN6icu_7516CSRecognizerInfoD2Ev.exit, label %delete.notnull.i

delete.notnull.i:                                 ; preds = %delete.notnull
  %vtable.i = load ptr, ptr %3, align 8
  %vfn.i = getelementptr inbounds i8, ptr %vtable.i, i64 32
  %4 = load ptr, ptr %vfn.i, align 8
  tail call void %4(ptr noundef nonnull align 8 dereferenceable(8) %3) #14
  br label %_ZN6icu_7516CSRecognizerInfoD2Ev.exit

_ZN6icu_7516CSRecognizerInfoD2Ev.exit:            ; preds = %delete.notnull, %delete.notnull.i
  tail call void @_ZN6icu_757UMemorydlEPv(ptr noundef nonnull %2) #14
  %.pre = load ptr, ptr @_ZL14fCSRecognizers, align 8
  %.b.pre = load i1, ptr @_ZL19fCSRecognizers_size, align 4
  br label %delete.end

delete.end:                                       ; preds = %_ZN6icu_7516CSRecognizerInfoD2Ev.exit, %for.body
  %.b = phi i1 [ %.b.pre, %_ZN6icu_7516CSRecognizerInfoD2Ev.exit ], [ true, %for.body ]
  %5 = phi ptr [ %.pre, %_ZN6icu_7516CSRecognizerInfoD2Ev.exit ], [ %1, %for.body ]
  %arrayidx3 = getelementptr inbounds ptr, ptr %5, i64 %indvars.iv
  store ptr null, ptr %arrayidx3, align 8
  %indvars.iv.next = add nuw nsw i64 %indvars.iv, 1
  %cmp14 = icmp ult i64 %indvars.iv, 27
  %cmp1 = and i1 %.b, %cmp14
  br i1 %cmp1, label %for.body, label %for.end, !llvm.loop !11

for.end:                                          ; preds = %delete.end, %for.cond.preheader
  %6 = phi ptr [ %0, %for.cond.preheader ], [ %5, %delete.end ]
  tail call void @uprv_free_75(ptr noundef nonnull %6)
  store ptr null, ptr @_ZL14fCSRecognizers, align 8
  store i1 false, ptr @_ZL19fCSRecognizers_size, align 4
  br label %if.end

if.end:                                           ; preds = %for.end, %entry
  store atomic i32 0, ptr @_ZL22gCSRecognizersInitOnce seq_cst, align 4
  ret i8 1
}